; Function Attrs: mustprogress nofree norecurse nosync nounwind willreturn memory(argmem: read) uwtable
define internal { ptr, i64 } @_ZNK12_GLOBAL__N_116DWARFObjInMemory17getCUIndexSectionEv(ptr nocapture noundef nonnull readonly align 8 dereferenceable(1816) %0) unnamed_addr #17 align 2 {
  %2 = getelementptr inbounds nuw i8, ptr %0, i64 1672
  %.sroa.0.0.copyload = load ptr, ptr %2, align 8
  %.sroa.2.0..sroa_idx = getelementptr inbounds i8, ptr %0, i64 1680
  %.sroa.2.0.copyload = load i64, ptr %.sroa.2.0..sroa_idx, align 8
  %.fca.0.insert = insertvalue { ptr, i64 } poison, ptr %.sroa.0.0.copyload, 0
  %.fca.1.insert = insertvalue { ptr, i64 } %.fca.0.insert, i64 %.sroa.2.0.copyload, 1
  ret { ptr, i64 } %.fca.1.insert
}